target datalayout = "e-m:e-p270:32:32-p271:32:32-p272:64:64-i64:64-i128:128-f80:128-n8:16:32:64-S128"
target triple = "x86_64-pc-linux-gnu"

%struct.ForEachState = type { ptr, i32 }
%union.ListCell = type { ptr }
%struct.PlannerInfo = type { i32, ptr, ptr, i32, ptr, ptr, ptr, ptr, i32, ptr, ptr, ptr, ptr, ptr, ptr, ptr, ptr, i32, ptr, ptr, ptr, ptr, ptr, i8, ptr, ptr, ptr, ptr, ptr, i32, ptr, ptr, ptr, ptr, ptr, ptr, ptr, i32, ptr, ptr, ptr, i32, ptr, ptr, ptr, ptr, ptr, ptr, [8 x ptr], [8 x ptr], ptr, ptr, ptr, ptr, ptr, ptr, ptr, double, double, double, i32, i8, i8, i8, i8, i8, i8, i8, i32, ptr, ptr, i32, i8, i8, i32, ptr, ptr, ptr, ptr, ptr, ptr, i8, ptr }
%struct.List = type { i32, i32, i32, ptr, [0 x %union.ListCell] }
%struct.SubPlan = type { %struct.Expr, i32, ptr, ptr, i32, ptr, i32, i32, i32, i8, i8, i8, ptr, ptr, ptr, double, double }
%struct.Expr = type { i32 }
%struct.PlannerGlobal = type { i32, ptr, ptr, ptr, ptr, ptr, ptr, ptr, ptr, ptr, ptr, ptr, ptr, ptr, ptr, ptr, ptr, i32, i32, i32, i8, i8, i8, i8, i8, ptr }
%struct.Node = type { i32 }
%struct.Plan = type { i32, i32, double, double, double, i32, i8, i8, i8, i32, ptr, ptr, ptr, ptr, ptr, ptr, ptr }
%struct.finalize_primnode_context = type { ptr, ptr }
%struct.Param = type { %struct.Expr, i32, i32, i32, i32, i32, i32 }

; Function Attrs: inlinehint nounwind uwtable
define internal ptr @list_nth_cell(ptr noundef %0, i32 noundef %1) #5 {
  %3 = alloca ptr, align 8
  %4 = alloca i32, align 4
  store ptr %0, ptr %3, align 8
  store i32 %1, ptr %4, align 4
  %5 = load ptr, ptr %3, align 8
  %6 = getelementptr inbounds nuw %struct.List, ptr %5, i32 0, i32 3
  %7 = load ptr, ptr %6, align 8
  %8 = load i32, ptr %4, align 4
  %9 = sext i32 %8 to i64
  %10 = getelementptr inbounds %union.ListCell, ptr %7, i64 %9
  ret ptr %10
}

; Function Attrs: inlinehint nounwind uwtable
define internal ptr @list_nth(ptr noundef %0, i32 noundef %1) #5 {
  %3 = alloca ptr, align 8
  %4 = alloca i32, align 4
  store ptr %0, ptr %3, align 8
  store i32 %1, ptr %4, align 4
  %5 = load ptr, ptr %3, align 8
  %6 = load i32, ptr %4, align 4
  %7 = call ptr @list_nth_cell(ptr noundef %5, i32 noundef %6)
  %8 = load ptr, ptr %7, align 8
  ret ptr %8
}

; Function Attrs: nounwind uwtable
define internal zeroext i1 @finalize_primnode(ptr noundef %0, ptr noundef %1) #0 {
  %3 = alloca i1, align 1
  %4 = alloca ptr, align 8
  %5 = alloca ptr, align 8
  %6 = alloca i32, align 4
  %7 = alloca ptr, align 8
  %8 = alloca ptr, align 8
  %9 = alloca ptr, align 8
  %10 = alloca ptr, align 8
  %11 = alloca ptr, align 8
  %12 = alloca ptr, align 8
  %13 = alloca %struct.ForEachState, align 8
  %14 = alloca %struct.ForEachState, align 8
  store ptr %0, ptr %4, align 8
  store ptr %1, ptr %5, align 8
  %15 = load ptr, ptr %4, align 8
  %16 = icmp eq ptr %15, null
  br i1 %16, label %17, label %18

17:                                               ; preds = %2
  store i1 false, ptr %3, align 1
  br label %199

18:                                               ; preds = %2
  %19 = load ptr, ptr %4, align 8
  %20 = getelementptr inbounds nuw %struct.Node, ptr %19, i32 0, i32 0
  %21 = load i32, ptr %20, align 4
  %22 = icmp eq i32 %21, 8
  br i1 %22, label %23, label %40

23:                                               ; preds = %18
  %24 = load ptr, ptr %4, align 8
  %25 = getelementptr inbounds nuw %struct.Param, ptr %24, i32 0, i32 1
  %26 = load i32, ptr %25, align 4
  %27 = icmp eq i32 %26, 1
  br i1 %27, label %28, label %39

28:                                               ; preds = %23
  call void @llvm.lifetime.start.p0(i64 4, ptr %6) #8
  %29 = load ptr, ptr %4, align 8
  %30 = getelementptr inbounds nuw %struct.Param, ptr %29, i32 0, i32 2
  %31 = load i32, ptr %30, align 4
  store i32 %31, ptr %6, align 4
  %32 = load ptr, ptr %5, align 8
  %33 = getelementptr inbounds nuw %struct.finalize_primnode_context, ptr %32, i32 0, i32 1
  %34 = load ptr, ptr %33, align 8
  %35 = load i32, ptr %6, align 4
  %36 = call ptr @bms_add_member(ptr noundef %34, i32 noundef %35)
  %37 = load ptr, ptr %5, align 8
  %38 = getelementptr inbounds nuw %struct.finalize_primnode_context, ptr %37, i32 0, i32 1
  store ptr %36, ptr %38, align 8
  call void @llvm.lifetime.end.p0(i64 4, ptr %6) #8
  br label %39

39:                                               ; preds = %28, %23
  store i1 false, ptr %3, align 1
  br label %199

40:                                               ; preds = %18
  %41 = load ptr, ptr %4, align 8
  %42 = getelementptr inbounds nuw %struct.Node, ptr %41, i32 0, i32 0
  %43 = load i32, ptr %42, align 4
  %44 = icmp eq i32 %43, 9
  br i1 %44, label %45, label %65

45:                                               ; preds = %40
  call void @llvm.lifetime.start.p0(i64 8, ptr %7) #8
  %46 = load ptr, ptr %4, align 8
  store ptr %46, ptr %7, align 8
  call void @llvm.lifetime.start.p0(i64 8, ptr %8) #8
  %47 = load ptr, ptr %5, align 8
  %48 = getelementptr inbounds nuw %struct.finalize_primnode_context, ptr %47, i32 0, i32 0
  %49 = load ptr, ptr %48, align 8
  %50 = load ptr, ptr %7, align 8
  %51 = call ptr @find_minmax_agg_replacement_param(ptr noundef %49, ptr noundef %50)
  store ptr %51, ptr %8, align 8
  %52 = load ptr, ptr %8, align 8
  %53 = icmp ne ptr %52, null
  br i1 %53, label %54, label %64

54:                                               ; preds = %45
  %55 = load ptr, ptr %5, align 8
  %56 = getelementptr inbounds nuw %struct.finalize_primnode_context, ptr %55, i32 0, i32 1
  %57 = load ptr, ptr %56, align 8
  %58 = load ptr, ptr %8, align 8
  %59 = getelementptr inbounds nuw %struct.Param, ptr %58, i32 0, i32 2
  %60 = load i32, ptr %59, align 4
  %61 = call ptr @bms_add_member(ptr noundef %57, i32 noundef %60)
  %62 = load ptr, ptr %5, align 8
  %63 = getelementptr inbounds nuw %struct.finalize_primnode_context, ptr %62, i32 0, i32 1
  store ptr %61, ptr %63, align 8
  br label %64

64:                                               ; preds = %54, %45
  call void @llvm.lifetime.end.p0(i64 8, ptr %8) #8
  call void @llvm.lifetime.end.p0(i64 8, ptr %7) #8
  br label %194

65:                                               ; preds = %40
  %66 = load ptr, ptr %4, align 8
  %67 = getelementptr inbounds nuw %struct.Node, ptr %66, i32 0, i32 0
  %68 = load i32, ptr %67, align 4
  %69 = icmp eq i32 %68, 23
  br i1 %69, label %70, label %193

70:                                               ; preds = %65
  call void @llvm.lifetime.start.p0(i64 8, ptr %9) #8
  %71 = load ptr, ptr %4, align 8
  store ptr %71, ptr %9, align 8
  call void @llvm.lifetime.start.p0(i64 8, ptr %10) #8
  %72 = load ptr, ptr %5, align 8
  %73 = getelementptr inbounds nuw %struct.finalize_primnode_context, ptr %72, i32 0, i32 0
  %74 = load ptr, ptr %73, align 8
  %75 = getelementptr inbounds nuw %struct.PlannerInfo, ptr %74, i32 0, i32 2
  %76 = load ptr, ptr %75, align 8
  %77 = getelementptr inbounds nuw %struct.PlannerGlobal, ptr %76, i32 0, i32 2
  %78 = load ptr, ptr %77, align 8
  %79 = load ptr, ptr %9, align 8
  %80 = getelementptr inbounds nuw %struct.SubPlan, ptr %79, i32 0, i32 4
  %81 = load i32, ptr %80, align 8
  %82 = sub i32 %81, 1
  %83 = call ptr @list_nth(ptr noundef %78, i32 noundef %82)
  store ptr %83, ptr %10, align 8
  call void @llvm.lifetime.start.p0(i64 8, ptr %11) #8
  call void @llvm.lifetime.start.p0(i64 8, ptr %12) #8
  %84 = load ptr, ptr %9, align 8
  %85 = getelementptr inbounds nuw %struct.SubPlan, ptr %84, i32 0, i32 2
  %86 = load ptr, ptr %85, align 8
  %87 = load ptr, ptr %5, align 8
  %88 = call zeroext i1 @finalize_primnode(ptr noundef %86, ptr noundef %87)
  call void @llvm.lifetime.start.p0(i64 16, ptr %13) #8
  %89 = getelementptr inbounds nuw %struct.ForEachState, ptr %13, i32 0, i32 0
  %90 = load ptr, ptr %9, align 8
  %91 = getelementptr inbounds nuw %struct.SubPlan, ptr %90, i32 0, i32 3
  %92 = load ptr, ptr %91, align 8
  store ptr %92, ptr %89, align 8
  %93 = getelementptr inbounds nuw %struct.ForEachState, ptr %13, i32 0, i32 1
  store i32 0, ptr %93, align 8
  %94 = getelementptr i8, ptr %13, i64 12
  call void @llvm.memset.p0.i64(ptr align 4 %94, i8 0, i64 4, i1 false)
  br label %95

95:                                               ; preds = %130, %70
  %96 = getelementptr inbounds nuw %struct.ForEachState, ptr %13, i32 0, i32 0
  %97 = load ptr, ptr %96, align 8
  %98 = icmp ne ptr %97, null
  br i1 %98, label %99, label %116

99:                                               ; preds = %95
  %100 = getelementptr inbounds nuw %struct.ForEachState, ptr %13, i32 0, i32 1
  %101 = load i32, ptr %100, align 8
  %102 = getelementptr inbounds nuw %struct.ForEachState, ptr %13, i32 0, i32 0
  %103 = load ptr, ptr %102, align 8
  %104 = getelementptr inbounds nuw %struct.List, ptr %103, i32 0, i32 1
  %105 = load i32, ptr %104, align 4
  %106 = icmp slt i32 %101, %105
  br i1 %106, label %107, label %116

107:                                              ; preds = %99
  %108 = getelementptr inbounds nuw %struct.ForEachState, ptr %13, i32 0, i32 0
  %109 = load ptr, ptr %108, align 8
  %110 = getelementptr inbounds nuw %struct.List, ptr %109, i32 0, i32 3
  %111 = load ptr, ptr %110, align 8
  %112 = getelementptr inbounds nuw %struct.ForEachState, ptr %13, i32 0, i32 1
  %113 = load i32, ptr %112, align 8
  %114 = sext i32 %113 to i64
  %115 = getelementptr inbounds %union.ListCell, ptr %111, i64 %114
  store ptr %115, ptr %11, align 8
  br label %117

116:                                              ; preds = %99, %95
  store ptr null, ptr %11, align 8
  br label %117

117:                                              ; preds = %116, %107
  %118 = phi i32 [ 1, %107 ], [ 0, %116 ]
  %119 = icmp ne i32 %118, 0
  br i1 %119, label %121, label %120

120:                                              ; preds = %117
  call void @llvm.lifetime.end.p0(i64 16, ptr %13) #8
  br label %134

121:                                              ; preds = %117
  %122 = load ptr, ptr %5, align 8
  %123 = getelementptr inbounds nuw %struct.finalize_primnode_context, ptr %122, i32 0, i32 1
  %124 = load ptr, ptr %123, align 8
  %125 = load ptr, ptr %11, align 8
  %126 = load i32, ptr %125, align 8
  %127 = call ptr @bms_del_member(ptr noundef %124, i32 noundef %126)
  %128 = load ptr, ptr %5, align 8
  %129 = getelementptr inbounds nuw %struct.finalize_primnode_context, ptr %128, i32 0, i32 1
  store ptr %127, ptr %129, align 8
  br label %130

130:                                              ; preds = %121
  %131 = getelementptr inbounds nuw %struct.ForEachState, ptr %13, i32 0, i32 1
  %132 = load i32, ptr %131, align 8
  %133 = add i32 %132, 1
  store i32 %133, ptr %131, align 8
  br label %95, !llvm.loop !35

134:                                              ; preds = %120
  %135 = load ptr, ptr %9, align 8
  %136 = getelementptr inbounds nuw %struct.SubPlan, ptr %135, i32 0, i32 14
  %137 = load ptr, ptr %136, align 8
  %138 = load ptr, ptr %5, align 8
  %139 = call zeroext i1 @finalize_primnode(ptr noundef %137, ptr noundef %138)
  %140 = load ptr, ptr %10, align 8
  %141 = getelementptr inbounds nuw %struct.Plan, ptr %140, i32 0, i32 15
  %142 = load ptr, ptr %141, align 8
  %143 = call ptr @bms_copy(ptr noundef %142)
  store ptr %143, ptr %12, align 8
  call void @llvm.lifetime.start.p0(i64 16, ptr %14) #8
  %144 = getelementptr inbounds nuw %struct.ForEachState, ptr %14, i32 0, i32 0
  %145 = load ptr, ptr %9, align 8
  %146 = getelementptr inbounds nuw %struct.SubPlan, ptr %145, i32 0, i32 13
  %147 = load ptr, ptr %146, align 8
  store ptr %147, ptr %144, align 8
  %148 = getelementptr inbounds nuw %struct.ForEachState, ptr %14, i32 0, i32 1
  store i32 0, ptr %148, align 8
  %149 = getelementptr i8, ptr %14, i64 12
  call void @llvm.memset.p0.i64(ptr align 4 %149, i8 0, i64 4, i1 false)
  br label %150

150:                                              ; preds = %181, %134
  %151 = getelementptr inbounds nuw %struct.ForEachState, ptr %14, i32 0, i32 0
  %152 = load ptr, ptr %151, align 8
  %153 = icmp ne ptr %152, null
  br i1 %153, label %154, label %171

154:                                              ; preds = %150
  %155 = getelementptr inbounds nuw %struct.ForEachState, ptr %14, i32 0, i32 1
  %156 = load i32, ptr %155, align 8
  %157 = getelementptr inbounds nuw %struct.ForEachState, ptr %14, i32 0, i32 0
  %158 = load ptr, ptr %157, align 8
  %159 = getelementptr inbounds nuw %struct.List, ptr %158, i32 0, i32 1
  %160 = load i32, ptr %159, align 4
  %161 = icmp slt i32 %156, %160
  br i1 %161, label %162, label %171

162:                                              ; preds = %154
  %163 = getelementptr inbounds nuw %struct.ForEachState, ptr %14, i32 0, i32 0
  %164 = load ptr, ptr %163, align 8
  %165 = getelementptr inbounds nuw %struct.List, ptr %164, i32 0, i32 3
  %166 = load ptr, ptr %165, align 8
  %167 = getelementptr inbounds nuw %struct.ForEachState, ptr %14, i32 0, i32 1
  %168 = load i32, ptr %167, align 8
  %169 = sext i32 %168 to i64
  %170 = getelementptr inbounds %union.ListCell, ptr %166, i64 %169
  store ptr %170, ptr %11, align 8
  br label %172

171:                                              ; preds = %154, %150
  store ptr null, ptr %11, align 8
  br label %172

172:                                              ; preds = %171, %162
  %173 = phi i32 [ 1, %162 ], [ 0, %171 ]
  %174 = icmp ne i32 %173, 0
  br i1 %174, label %176, label %175

175:                                              ; preds = %172
  call void @llvm.lifetime.end.p0(i64 16, ptr %14) #8
  br label %185

176:                                              ; preds = %172
  %177 = load ptr, ptr %12, align 8
  %178 = load ptr, ptr %11, align 8
  %179 = load i32, ptr %178, align 8
  %180 = call ptr @bms_del_member(ptr noundef %177, i32 noundef %179)
  store ptr %180, ptr %12, align 8
  br label %181

181:                                              ; preds = %176
  %182 = getelementptr inbounds nuw %struct.ForEachState, ptr %14, i32 0, i32 1
  %183 = load i32, ptr %182, align 8
  %184 = add i32 %183, 1
  store i32 %184, ptr %182, align 8
  br label %150, !llvm.loop !36

185:                                              ; preds = %175
  %186 = load ptr, ptr %5, align 8
  %187 = getelementptr inbounds nuw %struct.finalize_primnode_context, ptr %186, i32 0, i32 1
  %188 = load ptr, ptr %187, align 8
  %189 = load ptr, ptr %12, align 8
  %190 = call ptr @bms_join(ptr noundef %188, ptr noundef %189)
  %191 = load ptr, ptr %5, align 8
  %192 = getelementptr inbounds nuw %struct.finalize_primnode_context, ptr %191, i32 0, i32 1
  store ptr %190, ptr %192, align 8
  store i1 false, ptr %3, align 1
  call void @llvm.lifetime.end.p0(i64 8, ptr %12) #8
  call void @llvm.lifetime.end.p0(i64 8, ptr %11) #8
  call void @llvm.lifetime.end.p0(i64 8, ptr %10) #8
  call void @llvm.lifetime.end.p0(i64 8, ptr %9) #8
  br label %199

193:                                              ; preds = %65
  br label %194

194:                                              ; preds = %193, %64
  br label %195

195:                                              ; preds = %194
  %196 = load ptr, ptr %4, align 8
  %197 = load ptr, ptr %5, align 8
  %198 = call zeroext i1 @expression_tree_walker_impl(ptr noundef %196, ptr noundef @finalize_primnode, ptr noundef %197)
  store i1 %198, ptr %3, align 1
  br label %199

199:                                              ; preds = %195, %185, %39, %17
  %200 = load i1, ptr %3, align 1
  ret i1 %200
}