; Function Attrs: nounwind uwtable
define internal zeroext i1 @finalize_primnode(ptr noundef %0, ptr noundef %1) #0 {
  %3 = icmp eq ptr %0, null
  br i1 %3, label %80, label %4

4:                                                ; preds = %2
  %5 = load i32, ptr %0, align 4
  switch i32 %5, label %78 [
    i32 8, label %6
    i32 9, label %16
    i32 23, label %25
  ]

6:                                                ; preds = %4
  %7 = getelementptr inbounds nuw i8, ptr %0, i64 4
  %8 = load i32, ptr %7, align 4
  %9 = icmp eq i32 %8, 1
  br i1 %9, label %10, label %80

10:                                               ; preds = %6
  %11 = getelementptr inbounds nuw i8, ptr %0, i64 8
  %12 = load i32, ptr %11, align 4
  %13 = getelementptr inbounds nuw i8, ptr %1, i64 8
  %14 = load ptr, ptr %13, align 8
  %15 = tail call ptr @bms_add_member(ptr noundef %14, i32 noundef %12) #10
  store ptr %15, ptr %13, align 8
  br label %80

16:                                               ; preds = %4
  %17 = load ptr, ptr %1, align 8
  %18 = tail call ptr @find_minmax_agg_replacement_param(ptr noundef %17, ptr noundef nonnull %0) #10
  %.not57 = icmp eq ptr %18, null
  br i1 %.not57, label %78, label %19

19:                                               ; preds = %16
  %20 = getelementptr inbounds nuw i8, ptr %1, i64 8
  %21 = load ptr, ptr %20, align 8
  %22 = getelementptr inbounds nuw i8, ptr %18, i64 8
  %23 = load i32, ptr %22, align 4
  %24 = tail call ptr @bms_add_member(ptr noundef %21, i32 noundef %23) #10
  store ptr %24, ptr %20, align 8
  br label %78

25:                                               ; preds = %4
  %26 = load ptr, ptr %1, align 8
  %27 = getelementptr inbounds nuw i8, ptr %26, i64 16
  %28 = load ptr, ptr %27, align 8
  %29 = getelementptr inbounds nuw i8, ptr %28, i64 16
  %30 = load ptr, ptr %29, align 8
  %31 = getelementptr inbounds nuw i8, ptr %0, i64 24
  %32 = load i32, ptr %31, align 8
  %33 = add i32 %32, -1
  %34 = getelementptr i8, ptr %30, i64 16
  %.val = load ptr, ptr %34, align 8
  %35 = sext i32 %33 to i64
  %36 = getelementptr inbounds %union.ListCell, ptr %.val, i64 %35
  %37 = load ptr, ptr %36, align 8
  %38 = getelementptr inbounds nuw i8, ptr %0, i64 8
  %39 = load ptr, ptr %38, align 8
  %40 = tail call zeroext i1 @finalize_primnode(ptr noundef %39, ptr noundef nonnull %1)
  %41 = getelementptr inbounds nuw i8, ptr %0, i64 16
  %42 = load ptr, ptr %41, align 8
  %43 = getelementptr inbounds nuw i8, ptr %42, i64 4
  %.not = icmp eq ptr %42, null
  br i1 %.not, label %._crit_edge, label %.lr.ph

.lr.ph:                                           ; preds = %25
  %44 = getelementptr inbounds nuw i8, ptr %42, i64 16
  %45 = getelementptr inbounds nuw i8, ptr %1, i64 8
  %46 = load i32, ptr %43, align 4
  %47 = icmp sgt i32 %46, 0
  br i1 %47, label %.lr.ph67.preheader, label %._crit_edge

.lr.ph67.preheader:                               ; preds = %.lr.ph
  %.pre = load ptr, ptr %45, align 8
  br label %.lr.ph67

._crit_edge:                                      ; preds = %.lr.ph67, %.lr.ph, %25
  %48 = getelementptr inbounds nuw i8, ptr %0, i64 72
  %49 = load ptr, ptr %48, align 8
  %50 = tail call zeroext i1 @finalize_primnode(ptr noundef %49, ptr noundef nonnull %1)
  %51 = getelementptr inbounds nuw i8, ptr %37, i64 88
  %52 = load ptr, ptr %51, align 8
  %53 = tail call ptr @bms_copy(ptr noundef %52) #10
  %54 = getelementptr inbounds nuw i8, ptr %0, i64 64
  %55 = load ptr, ptr %54, align 8
  %56 = getelementptr inbounds nuw i8, ptr %55, i64 4
  %.not55 = icmp eq ptr %55, null
  br i1 %.not55, label %._crit_edge72, label %.lr.ph71

.lr.ph71:                                         ; preds = %._crit_edge
  %57 = getelementptr inbounds nuw i8, ptr %55, i64 16
  %58 = load i32, ptr %56, align 4
  %59 = icmp sgt i32 %58, 0
  br i1 %59, label %.lr.ph78, label %._crit_edge72

.lr.ph67:                                         ; preds = %.lr.ph67.preheader, %.lr.ph67
  %60 = phi ptr [ %.pre, %.lr.ph67.preheader ], [ %64, %.lr.ph67 ]
  %indvars.iv = phi i64 [ 0, %.lr.ph67.preheader ], [ %indvars.iv.next, %.lr.ph67 ]
  %61 = load ptr, ptr %44, align 8
  %62 = getelementptr inbounds nuw %union.ListCell, ptr %61, i64 %indvars.iv
  %63 = load i32, ptr %62, align 8
  %64 = tail call ptr @bms_del_member(ptr noundef %60, i32 noundef %63) #10
  store ptr %64, ptr %45, align 8
  %indvars.iv.next = add nuw nsw i64 %indvars.iv, 1
  %65 = load i32, ptr %43, align 4
  %66 = sext i32 %65 to i64
  %67 = icmp slt i64 %indvars.iv.next, %66
  br i1 %67, label %.lr.ph67, label %._crit_edge

._crit_edge72:                                    ; preds = %.lr.ph78, %.lr.ph71, %._crit_edge
  %.048.lcssa = phi ptr [ %53, %._crit_edge ], [ %53, %.lr.ph71 ], [ %74, %.lr.ph78 ]
  %68 = getelementptr inbounds nuw i8, ptr %1, i64 8
  %69 = load ptr, ptr %68, align 8
  %70 = tail call ptr @bms_join(ptr noundef %69, ptr noundef %.048.lcssa) #10
  store ptr %70, ptr %68, align 8
  br label %80

.lr.ph78:                                         ; preds = %.lr.ph71, %.lr.ph78
  %indvars.iv81 = phi i64 [ %indvars.iv.next82, %.lr.ph78 ], [ 0, %.lr.ph71 ]
  %.0486877 = phi ptr [ %74, %.lr.ph78 ], [ %53, %.lr.ph71 ]
  %71 = load ptr, ptr %57, align 8
  %72 = getelementptr inbounds nuw %union.ListCell, ptr %71, i64 %indvars.iv81
  %73 = load i32, ptr %72, align 8
  %74 = tail call ptr @bms_del_member(ptr noundef %.0486877, i32 noundef %73) #10
  %indvars.iv.next82 = add nuw nsw i64 %indvars.iv81, 1
  %75 = load i32, ptr %56, align 4
  %76 = sext i32 %75 to i64
  %77 = icmp slt i64 %indvars.iv.next82, %76
  br i1 %77, label %.lr.ph78, label %._crit_edge72

78:                                               ; preds = %4, %16, %19
  %79 = tail call zeroext i1 @expression_tree_walker_impl(ptr noundef nonnull %0, ptr noundef nonnull @finalize_primnode, ptr noundef %1) #10
  br label %80

80:                                               ; preds = %6, %10, %2, %78, %._crit_edge72
  %.0 = phi i1 [ %79, %78 ], [ false, %._crit_edge72 ], [ false, %2 ], [ false, %10 ], [ false, %6 ]
  ret i1 %.0
}